target datalayout = "e-m:e-p270:32:32-p271:32:32-p272:64:64-i64:64-i128:128-f80:128-n8:16:32:64-S128"
target triple = "x86_64-pc-linux-gnu"

%struct.ArgoASFFileHeader = type { i32, i16, i16, i32, i32, [9 x i8] }
%struct.ArgoASFChunkHeader = type { i32, i32, i32, i16, i16, i32 }
%struct.AVChannelLayout = type { i32, i32, %union.anon, ptr }
%union.anon = type { i64 }
%struct.AVStream = type { ptr, i32, i32, ptr, ptr, %struct.AVRational, i64, i64, i64, i32, i32, %struct.AVRational, ptr, %struct.AVRational, %struct.AVPacket, i32, %struct.AVRational, i32 }
%struct.AVPacket = type { ptr, i64, i64, ptr, i32, i32, i32, ptr, i32, i64, i64, ptr, ptr, %struct.AVRational }
%struct.AVRational = type { i32, i32 }
%struct.AVCodecParameters = type { i32, i32, i32, ptr, i32, ptr, i32, i32, i64, i32, i32, i32, i32, i32, i32, %struct.AVRational, %struct.AVRational, i32, i32, i32, i32, i32, i32, i32, %struct.AVChannelLayout, i32, i32, i32, i32, i32, i32 }
%struct.AVFormatContext = type { ptr, ptr, ptr, ptr, ptr, i32, i32, ptr, i32, ptr, i32, ptr, ptr, i64, i64, i64, i32, i32, i32, i64, i64, ptr, i32, i32, ptr, i32, i32, i32, i32, ptr, i64, i32, i32, %struct.AVIOInterruptCB, i32, i32, i32, i32, i64, i32, i32, i32, i32, i32, i32, i32, i32, i32, i32, i32, i32, i64, i32, i32, i32, i32, i32, ptr, ptr, ptr, ptr, i32, ptr, ptr, ptr, ptr, i32, ptr, ptr, i64, ptr, ptr, ptr, i64 }
%struct.AVIOInterruptCB = type { ptr, ptr }
%struct.ArgoASFMuxContext = type { ptr, i32, i32, ptr, i64 }
%struct.AVDictionaryEntry = type { ptr, ptr }

@.str.5 = private unnamed_addr constant [6 x i8] c"title\00", align 1

; Function Attrs: nounwind uwtable
define internal void @argo_asf_write_chunk_header(ptr noundef %0, ptr noundef %1) #0 {
  %3 = alloca ptr, align 8
  %4 = alloca ptr, align 8
  store ptr %0, ptr %3, align 8, !tbaa !22
  store ptr %1, ptr %4, align 8, !tbaa !78
  %5 = load ptr, ptr %4, align 8, !tbaa !78
  %6 = load ptr, ptr %3, align 8, !tbaa !22
  %7 = getelementptr inbounds nuw %struct.ArgoASFChunkHeader, ptr %6, i32 0, i32 0
  %8 = load i32, ptr %7, align 4, !tbaa !24
  call void @avio_wl32(ptr noundef %5, i32 noundef %8)
  %9 = load ptr, ptr %4, align 8, !tbaa !78
  %10 = load ptr, ptr %3, align 8, !tbaa !22
  %11 = getelementptr inbounds nuw %struct.ArgoASFChunkHeader, ptr %10, i32 0, i32 1
  %12 = load i32, ptr %11, align 4, !tbaa !26
  call void @avio_wl32(ptr noundef %9, i32 noundef %12)
  %13 = load ptr, ptr %4, align 8, !tbaa !78
  %14 = load ptr, ptr %3, align 8, !tbaa !22
  %15 = getelementptr inbounds nuw %struct.ArgoASFChunkHeader, ptr %14, i32 0, i32 2
  %16 = load i32, ptr %15, align 4, !tbaa !27
  call void @avio_wl32(ptr noundef %13, i32 noundef %16)
  %17 = load ptr, ptr %4, align 8, !tbaa !78
  %18 = load ptr, ptr %3, align 8, !tbaa !22
  %19 = getelementptr inbounds nuw %struct.ArgoASFChunkHeader, ptr %18, i32 0, i32 3
  %20 = load i16, ptr %19, align 4, !tbaa !28
  %21 = zext i16 %20 to i32
  call void @avio_wl16(ptr noundef %17, i32 noundef %21)
  %22 = load ptr, ptr %4, align 8, !tbaa !78
  %23 = load ptr, ptr %3, align 8, !tbaa !22
  %24 = getelementptr inbounds nuw %struct.ArgoASFChunkHeader, ptr %23, i32 0, i32 4
  %25 = load i16, ptr %24, align 2, !tbaa !29
  %26 = zext i16 %25 to i32
  call void @avio_wl16(ptr noundef %22, i32 noundef %26)
  %27 = load ptr, ptr %4, align 8, !tbaa !78
  %28 = load ptr, ptr %3, align 8, !tbaa !22
  %29 = getelementptr inbounds nuw %struct.ArgoASFChunkHeader, ptr %28, i32 0, i32 5
  %30 = load i32, ptr %29, align 4, !tbaa !30
  call void @avio_wl32(ptr noundef %27, i32 noundef %30)
  ret void
}

; Function Attrs: nounwind uwtable
define internal void @argo_asf_write_file_header(ptr noundef %0, ptr noundef %1) #0 {
  %3 = alloca ptr, align 8
  %4 = alloca ptr, align 8
  store ptr %0, ptr %3, align 8, !tbaa !4
  store ptr %1, ptr %4, align 8, !tbaa !78
  %5 = load ptr, ptr %4, align 8, !tbaa !78
  %6 = load ptr, ptr %3, align 8, !tbaa !4
  %7 = getelementptr inbounds nuw %struct.ArgoASFFileHeader, ptr %6, i32 0, i32 0
  %8 = load i32, ptr %7, align 4, !tbaa !12
  call void @avio_wl32(ptr noundef %5, i32 noundef %8)
  %9 = load ptr, ptr %4, align 8, !tbaa !78
  %10 = load ptr, ptr %3, align 8, !tbaa !4
  %11 = getelementptr inbounds nuw %struct.ArgoASFFileHeader, ptr %10, i32 0, i32 1
  %12 = load i16, ptr %11, align 4, !tbaa !16
  %13 = zext i16 %12 to i32
  call void @avio_wl16(ptr noundef %9, i32 noundef %13)
  %14 = load ptr, ptr %4, align 8, !tbaa !78
  %15 = load ptr, ptr %3, align 8, !tbaa !4
  %16 = getelementptr inbounds nuw %struct.ArgoASFFileHeader, ptr %15, i32 0, i32 2
  %17 = load i16, ptr %16, align 2, !tbaa !17
  %18 = zext i16 %17 to i32
  call void @avio_wl16(ptr noundef %14, i32 noundef %18)
  %19 = load ptr, ptr %4, align 8, !tbaa !78
  %20 = load ptr, ptr %3, align 8, !tbaa !4
  %21 = getelementptr inbounds nuw %struct.ArgoASFFileHeader, ptr %20, i32 0, i32 3
  %22 = load i32, ptr %21, align 4, !tbaa !18
  call void @avio_wl32(ptr noundef %19, i32 noundef %22)
  %23 = load ptr, ptr %4, align 8, !tbaa !78
  %24 = load ptr, ptr %3, align 8, !tbaa !4
  %25 = getelementptr inbounds nuw %struct.ArgoASFFileHeader, ptr %24, i32 0, i32 4
  %26 = load i32, ptr %25, align 4, !tbaa !19
  call void @avio_wl32(ptr noundef %23, i32 noundef %26)
  %27 = load ptr, ptr %4, align 8, !tbaa !78
  %28 = load ptr, ptr %3, align 8, !tbaa !4
  %29 = getelementptr inbounds nuw %struct.ArgoASFFileHeader, ptr %28, i32 0, i32 5
  %30 = getelementptr inbounds [9 x i8], ptr %29, i64 0, i64 0
  call void @avio_write(ptr noundef %27, ptr noundef %30, i32 noundef 8)
  ret void
}

; Function Attrs: nounwind uwtable
define internal i32 @argo_asf_write_header(ptr noundef %0) #0 {
  %2 = alloca ptr, align 8
  %3 = alloca ptr, align 8
  %4 = alloca ptr, align 8
  %5 = alloca %struct.ArgoASFChunkHeader, align 4
  %6 = alloca %struct.ArgoASFFileHeader, align 4
  %7 = alloca ptr, align 8
  %8 = alloca ptr, align 8
  %9 = alloca ptr, align 8
  %10 = alloca i64, align 8
  store ptr %0, ptr %2, align 8, !tbaa !20
  call void @llvm.lifetime.start.p0(i64 8, ptr %3) #6
  %11 = load ptr, ptr %2, align 8, !tbaa !20
  %12 = getelementptr inbounds nuw %struct.AVFormatContext, ptr %11, i32 0, i32 7
  %13 = load ptr, ptr %12, align 8, !tbaa !88
  %14 = getelementptr inbounds ptr, ptr %13, i64 0
  %15 = load ptr, ptr %14, align 8, !tbaa !31
  %16 = getelementptr inbounds nuw %struct.AVStream, ptr %15, i32 0, i32 3
  %17 = load ptr, ptr %16, align 8, !tbaa !33
  store ptr %17, ptr %3, align 8, !tbaa !97
  call void @llvm.lifetime.start.p0(i64 8, ptr %4) #6
  %18 = load ptr, ptr %2, align 8, !tbaa !20
  %19 = getelementptr inbounds nuw %struct.AVFormatContext, ptr %18, i32 0, i32 3
  %20 = load ptr, ptr %19, align 8, !tbaa !79
  store ptr %20, ptr %4, align 8, !tbaa !98
  call void @llvm.lifetime.start.p0(i64 20, ptr %5) #6
  call void @llvm.lifetime.start.p0(i64 28, ptr %6) #6
  %21 = getelementptr inbounds nuw %struct.ArgoASFFileHeader, ptr %6, i32 0, i32 0
  store i32 4608833, ptr %21, align 4, !tbaa !12
  %22 = getelementptr inbounds nuw %struct.ArgoASFFileHeader, ptr %6, i32 0, i32 1
  %23 = load ptr, ptr %4, align 8, !tbaa !98
  %24 = getelementptr inbounds nuw %struct.ArgoASFMuxContext, ptr %23, i32 0, i32 1
  %25 = load i32, ptr %24, align 8, !tbaa !100
  %26 = trunc i32 %25 to i16
  store i16 %26, ptr %22, align 4, !tbaa !16
  %27 = getelementptr inbounds nuw %struct.ArgoASFFileHeader, ptr %6, i32 0, i32 2
  %28 = load ptr, ptr %4, align 8, !tbaa !98
  %29 = getelementptr inbounds nuw %struct.ArgoASFMuxContext, ptr %28, i32 0, i32 2
  %30 = load i32, ptr %29, align 4, !tbaa !102
  %31 = trunc i32 %30 to i16
  store i16 %31, ptr %27, align 2, !tbaa !17
  %32 = getelementptr inbounds nuw %struct.ArgoASFFileHeader, ptr %6, i32 0, i32 3
  store i32 1, ptr %32, align 4, !tbaa !18
  %33 = getelementptr inbounds nuw %struct.ArgoASFFileHeader, ptr %6, i32 0, i32 4
  store i32 24, ptr %33, align 4, !tbaa !19
  %34 = getelementptr inbounds nuw %struct.ArgoASFFileHeader, ptr %6, i32 0, i32 5
  call void @llvm.memset.p0.i64(ptr align 4 %34, i8 0, i64 9, i1 false)
  %35 = getelementptr i8, ptr %6, i64 25
  call void @llvm.memset.p0.i64(ptr align 1 %35, i8 0, i64 3, i1 false)
  call void @llvm.lifetime.start.p0(i64 8, ptr %7) #6
  call void @llvm.lifetime.start.p0(i64 8, ptr %8) #6
  call void @llvm.lifetime.start.p0(i64 8, ptr %9) #6
  call void @llvm.lifetime.start.p0(i64 8, ptr %10) #6
  %36 = load ptr, ptr %4, align 8, !tbaa !98
  %37 = getelementptr inbounds nuw %struct.ArgoASFMuxContext, ptr %36, i32 0, i32 3
  %38 = load ptr, ptr %37, align 8, !tbaa !103
  %39 = icmp ne ptr %38, null
  br i1 %39, label %40, label %48

40:                                               ; preds = %1
  %41 = load ptr, ptr %4, align 8, !tbaa !98
  %42 = getelementptr inbounds nuw %struct.ArgoASFMuxContext, ptr %41, i32 0, i32 3
  %43 = load ptr, ptr %42, align 8, !tbaa !103
  store ptr %43, ptr %8, align 8, !tbaa !9
  %44 = load ptr, ptr %4, align 8, !tbaa !98
  %45 = getelementptr inbounds nuw %struct.ArgoASFMuxContext, ptr %44, i32 0, i32 3
  %46 = load ptr, ptr %45, align 8, !tbaa !103
  %47 = call i64 @strlen(ptr noundef %46) #7
  store i64 %47, ptr %10, align 8, !tbaa !82
  br label %80

48:                                               ; preds = %1
  %49 = load ptr, ptr %2, align 8, !tbaa !20
  %50 = getelementptr inbounds nuw %struct.AVFormatContext, ptr %49, i32 0, i32 29
  %51 = load ptr, ptr %50, align 8, !tbaa !104
  %52 = call ptr @av_dict_get(ptr noundef %51, ptr noundef @.str.5, ptr noundef null, i32 noundef 0)
  store ptr %52, ptr %7, align 8, !tbaa !105
  %53 = icmp ne ptr %52, null
  br i1 %53, label %54, label %62

54:                                               ; preds = %48
  %55 = load ptr, ptr %7, align 8, !tbaa !105
  %56 = getelementptr inbounds nuw %struct.AVDictionaryEntry, ptr %55, i32 0, i32 1
  %57 = load ptr, ptr %56, align 8, !tbaa !107
  store ptr %57, ptr %8, align 8, !tbaa !9
  %58 = load ptr, ptr %7, align 8, !tbaa !105
  %59 = getelementptr inbounds nuw %struct.AVDictionaryEntry, ptr %58, i32 0, i32 1
  %60 = load ptr, ptr %59, align 8, !tbaa !107
  %61 = call i64 @strlen(ptr noundef %60) #7
  store i64 %61, ptr %10, align 8, !tbaa !82
  br label %79

62:                                               ; preds = %48
  %63 = load ptr, ptr %2, align 8, !tbaa !20
  %64 = getelementptr inbounds nuw %struct.AVFormatContext, ptr %63, i32 0, i32 12
  %65 = load ptr, ptr %64, align 8, !tbaa !109
  %66 = call ptr @av_basename(ptr noundef %65)
  store ptr %66, ptr %8, align 8, !tbaa !9
  %67 = call ptr @strrchr(ptr noundef %66, i32 noundef 46) #7
  store ptr %67, ptr %9, align 8, !tbaa !9
  %68 = icmp ne ptr %67, null
  br i1 %68, label %72, label %69

69:                                               ; preds = %62
  %70 = load ptr, ptr %8, align 8, !tbaa !9
  %71 = call i64 @strlen(ptr noundef %70) #7
  store i64 %71, ptr %10, align 8, !tbaa !82
  br label %78

72:                                               ; preds = %62
  %73 = load ptr, ptr %9, align 8, !tbaa !9
  %74 = load ptr, ptr %8, align 8, !tbaa !9
  %75 = ptrtoint ptr %73 to i64
  %76 = ptrtoint ptr %74 to i64
  %77 = sub i64 %75, %76
  store i64 %77, ptr %10, align 8, !tbaa !82
  br label %78

78:                                               ; preds = %72, %69
  br label %79

79:                                               ; preds = %78, %54
  br label %80

80:                                               ; preds = %79, %40
  %81 = getelementptr inbounds nuw %struct.ArgoASFFileHeader, ptr %6, i32 0, i32 5
  %82 = getelementptr inbounds [9 x i8], ptr %81, i64 0, i64 0
  %83 = load ptr, ptr %8, align 8, !tbaa !9
  %84 = load i64, ptr %10, align 8, !tbaa !82
  %85 = icmp ugt i64 %84, 8
  br i1 %85, label %86, label %87

86:                                               ; preds = %80
  br label %89

87:                                               ; preds = %80
  %88 = load i64, ptr %10, align 8, !tbaa !82
  br label %89

89:                                               ; preds = %87, %86
  %90 = phi i64 [ 8, %86 ], [ %88, %87 ]
  call void @llvm.memcpy.p0.p0.i64(ptr align 4 %82, ptr align 1 %83, i64 %90, i1 false)
  %91 = getelementptr inbounds nuw %struct.ArgoASFChunkHeader, ptr %5, i32 0, i32 0
  store i32 0, ptr %91, align 4, !tbaa !24
  %92 = getelementptr inbounds nuw %struct.ArgoASFChunkHeader, ptr %5, i32 0, i32 1
  store i32 32, ptr %92, align 4, !tbaa !26
  %93 = getelementptr inbounds nuw %struct.ArgoASFChunkHeader, ptr %5, i32 0, i32 2
  store i32 0, ptr %93, align 4, !tbaa !27
  %94 = load ptr, ptr %4, align 8, !tbaa !98
  %95 = getelementptr inbounds nuw %struct.ArgoASFMuxContext, ptr %94, i32 0, i32 1
  %96 = load i32, ptr %95, align 8, !tbaa !100
  %97 = icmp eq i32 %96, 1
  br i1 %97, label %98, label %105

98:                                               ; preds = %89
  %99 = load ptr, ptr %4, align 8, !tbaa !98
  %100 = getelementptr inbounds nuw %struct.ArgoASFMuxContext, ptr %99, i32 0, i32 2
  %101 = load i32, ptr %100, align 4, !tbaa !102
  %102 = icmp eq i32 %101, 1
  br i1 %102, label %103, label %105

103:                                              ; preds = %98
  %104 = getelementptr inbounds nuw %struct.ArgoASFChunkHeader, ptr %5, i32 0, i32 3
  store i16 -21436, ptr %104, align 4, !tbaa !28
  br label %111

105:                                              ; preds = %98, %89
  %106 = load ptr, ptr %3, align 8, !tbaa !97
  %107 = getelementptr inbounds nuw %struct.AVCodecParameters, ptr %106, i32 0, i32 25
  %108 = load i32, ptr %107, align 8, !tbaa !54
  %109 = trunc i32 %108 to i16
  %110 = getelementptr inbounds nuw %struct.ArgoASFChunkHeader, ptr %5, i32 0, i32 3
  store i16 %109, ptr %110, align 4, !tbaa !28
  br label %111

111:                                              ; preds = %105, %103
  %112 = getelementptr inbounds nuw %struct.ArgoASFChunkHeader, ptr %5, i32 0, i32 4
  store i16 -1, ptr %112, align 2, !tbaa !29
  %113 = getelementptr inbounds nuw %struct.ArgoASFChunkHeader, ptr %5, i32 0, i32 5
  store i32 13, ptr %113, align 4, !tbaa !30
  %114 = load ptr, ptr %3, align 8, !tbaa !97
  %115 = getelementptr inbounds nuw %struct.AVCodecParameters, ptr %114, i32 0, i32 24
  %116 = getelementptr inbounds nuw %struct.AVChannelLayout, ptr %115, i32 0, i32 1
  %117 = load i32, ptr %116, align 4, !tbaa !56
  %118 = icmp eq i32 %117, 2
  br i1 %118, label %119, label %123

119:                                              ; preds = %111
  %120 = getelementptr inbounds nuw %struct.ArgoASFChunkHeader, ptr %5, i32 0, i32 5
  %121 = load i32, ptr %120, align 4, !tbaa !30
  %122 = or i32 %121, 2
  store i32 %122, ptr %120, align 4, !tbaa !30
  br label %123

123:                                              ; preds = %119, %111
  %124 = load ptr, ptr %2, align 8, !tbaa !20
  %125 = getelementptr inbounds nuw %struct.AVFormatContext, ptr %124, i32 0, i32 4
  %126 = load ptr, ptr %125, align 8, !tbaa !66
  call void @argo_asf_write_file_header(ptr noundef %6, ptr noundef %126)
  %127 = load ptr, ptr %2, align 8, !tbaa !20
  %128 = getelementptr inbounds nuw %struct.AVFormatContext, ptr %127, i32 0, i32 4
  %129 = load ptr, ptr %128, align 8, !tbaa !66
  call void @argo_asf_write_chunk_header(ptr noundef %5, ptr noundef %129)
  call void @llvm.lifetime.end.p0(i64 8, ptr %10) #6
  call void @llvm.lifetime.end.p0(i64 8, ptr %9) #6
  call void @llvm.lifetime.end.p0(i64 8, ptr %8) #6
  call void @llvm.lifetime.end.p0(i64 8, ptr %7) #6
  call void @llvm.lifetime.end.p0(i64 28, ptr %6) #6
  call void @llvm.lifetime.end.p0(i64 20, ptr %5) #6
  call void @llvm.lifetime.end.p0(i64 8, ptr %4) #6
  call void @llvm.lifetime.end.p0(i64 8, ptr %3) #6
  ret i32 0
}