; Function Attrs: nounwind uwtable
define internal noundef i32 @argo_asf_write_header(ptr noundef readonly captures(none) %0) #3 {
  %2 = alloca %struct.ArgoASFFileHeader, align 4
  %3 = getelementptr inbounds nuw i8, ptr %0, i64 48
  %4 = load ptr, ptr %3, align 8, !tbaa !64
  %5 = load ptr, ptr %4, align 8, !tbaa !65
  %6 = getelementptr inbounds nuw i8, ptr %5, i64 16
  %7 = load ptr, ptr %6, align 8, !tbaa !22
  %8 = getelementptr inbounds nuw i8, ptr %0, i64 24
  %9 = load ptr, ptr %8, align 8, !tbaa !63
  call void @llvm.lifetime.start.p0(i64 28, ptr nonnull %2) #10
  store i32 4608833, ptr %2, align 4, !tbaa !7
  %10 = getelementptr inbounds nuw i8, ptr %2, i64 4
  %11 = getelementptr inbounds nuw i8, ptr %9, i64 8
  %12 = load i32, ptr %11, align 8, !tbaa !77
  %13 = trunc i32 %12 to i16
  store i16 %13, ptr %10, align 4, !tbaa !11
  %14 = getelementptr inbounds nuw i8, ptr %2, i64 6
  %15 = getelementptr inbounds nuw i8, ptr %9, i64 12
  %16 = load i32, ptr %15, align 4, !tbaa !79
  %17 = trunc i32 %16 to i16
  store i16 %17, ptr %14, align 2, !tbaa !12
  %18 = getelementptr inbounds nuw i8, ptr %2, i64 8
  store i32 1, ptr %18, align 4, !tbaa !13
  %19 = getelementptr inbounds nuw i8, ptr %2, i64 12
  store i32 24, ptr %19, align 4, !tbaa !14
  %20 = getelementptr inbounds nuw i8, ptr %2, i64 16
  %21 = getelementptr inbounds nuw i8, ptr %9, i64 16
  call void @llvm.memset.p0.i64(ptr noundef nonnull align 4 dereferenceable(12) %20, i8 0, i64 12, i1 false)
  %22 = load ptr, ptr %21, align 8, !tbaa !80
  %.not = icmp eq ptr %22, null
  br i1 %.not, label %25, label %23

23:                                               ; preds = %1
  %24 = tail call i64 @strlen(ptr noundef nonnull dereferenceable(1) %22) #11
  br label %44

25:                                               ; preds = %1
  %26 = getelementptr inbounds nuw i8, ptr %0, i64 192
  %27 = load ptr, ptr %26, align 8, !tbaa !81
  %28 = tail call ptr @av_dict_get(ptr noundef %27, ptr noundef nonnull @.str.5, ptr noundef null, i32 noundef 0) #10
  %.not26 = icmp eq ptr %28, null
  br i1 %.not26, label %33, label %29

29:                                               ; preds = %25
  %30 = getelementptr inbounds nuw i8, ptr %28, i64 8
  %31 = load ptr, ptr %30, align 8, !tbaa !82
  %32 = tail call i64 @strlen(ptr noundef nonnull dereferenceable(1) %31) #11
  br label %44

33:                                               ; preds = %25
  %34 = getelementptr inbounds nuw i8, ptr %0, i64 88
  %35 = load ptr, ptr %34, align 8, !tbaa !84
  %36 = tail call ptr @av_basename(ptr noundef %35) #10
  %37 = tail call ptr @strrchr(ptr noundef nonnull dereferenceable(1) %36, i32 noundef 46) #11
  %.not27 = icmp eq ptr %37, null
  br i1 %.not27, label %38, label %40

38:                                               ; preds = %33
  %39 = tail call i64 @strlen(ptr noundef nonnull dereferenceable(1) %36) #11
  br label %44

40:                                               ; preds = %33
  %41 = ptrtoint ptr %37 to i64
  %42 = ptrtoint ptr %36 to i64
  %43 = sub i64 %41, %42
  br label %44

44:                                               ; preds = %29, %40, %38, %23
  %.022 = phi ptr [ %22, %23 ], [ %31, %29 ], [ %36, %40 ], [ %36, %38 ]
  %.0 = phi i64 [ %24, %23 ], [ %32, %29 ], [ %43, %40 ], [ %39, %38 ]
  %45 = tail call i64 @llvm.umin.i64(i64 %.0, i64 8)
  call void @llvm.memcpy.p0.p0.i64(ptr nonnull align 4 %20, ptr nonnull align 1 %.022, i64 %45, i1 false)
  %46 = load i32, ptr %11, align 8, !tbaa !77
  %47 = icmp eq i32 %46, 1
  br i1 %47, label %48, label %51

48:                                               ; preds = %44
  %49 = load i32, ptr %15, align 4, !tbaa !79
  %50 = icmp eq i32 %49, 1
  br i1 %50, label %55, label %51

51:                                               ; preds = %48, %44
  %52 = getelementptr inbounds nuw i8, ptr %7, i64 152
  %53 = load i32, ptr %52, align 8, !tbaa !41
  %54 = and i32 %53, 65535
  br label %55

55:                                               ; preds = %48, %51
  %.sroa.8.0 = phi i32 [ %54, %51 ], [ 44100, %48 ]
  %56 = getelementptr inbounds nuw i8, ptr %7, i64 132
  %57 = load i32, ptr %56, align 4, !tbaa !43
  %58 = icmp eq i32 %57, 2
  %spec.store.select = select i1 %58, i32 15, i32 13
  %59 = getelementptr inbounds nuw i8, ptr %0, i64 32
  %60 = load ptr, ptr %59, align 8, !tbaa !51
  tail call void @avio_wl32(ptr noundef %60, i32 noundef 4608833) #10
  %61 = and i32 %12, 65535
  tail call void @avio_wl16(ptr noundef %60, i32 noundef %61) #10
  %62 = and i32 %16, 65535
  tail call void @avio_wl16(ptr noundef %60, i32 noundef %62) #10
  tail call void @avio_wl32(ptr noundef %60, i32 noundef 1) #10
  tail call void @avio_wl32(ptr noundef %60, i32 noundef 24) #10
  call void @avio_write(ptr noundef %60, ptr noundef nonnull %20, i32 noundef 8) #10
  %63 = load ptr, ptr %59, align 8, !tbaa !51
  call void @avio_wl32(ptr noundef %63, i32 noundef 0) #10
  call void @avio_wl32(ptr noundef %63, i32 noundef 32) #10
  call void @avio_wl32(ptr noundef %63, i32 noundef 0) #10
  call void @avio_wl16(ptr noundef %63, i32 noundef %.sroa.8.0) #10
  call void @avio_wl16(ptr noundef %63, i32 noundef 65535) #10
  call void @avio_wl32(ptr noundef %63, i32 noundef %spec.store.select) #10
  call void @llvm.lifetime.end.p0(i64 28, ptr nonnull %2) #10
  ret i32 0
}